; Function Attrs: mustprogress nofree norecurse nosync nounwind willreturn memory(read, inaccessiblemem: none) uwtable
define dso_local noundef zeroext i1 @_ZN4Luau8subsumesEPNS_5ScopeES1_(ptr noundef readnone %0, ptr noundef readonly %1) local_unnamed_addr #8 {
  %3 = icmp eq ptr %0, %1
  br i1 %3, label %_ZN4Luau14subsumesStrictEPNS_5ScopeES1_.exit, label %.preheader

.preheader:                                       ; preds = %2, %4
  %.0.i = phi ptr [ %5, %4 ], [ %1, %2 ]
  %.not.not.not.not.i.not.not.not = icmp ne ptr %.0.i, null
  br i1 %.not.not.not.not.i.not.not.not, label %4, label %_ZN4Luau14subsumesStrictEPNS_5ScopeES1_.exit

4:                                                ; preds = %.preheader
  %5 = load ptr, ptr %.0.i, align 8, !tbaa !94
  %6 = icmp eq ptr %5, %0
  br i1 %6, label %_ZN4Luau14subsumesStrictEPNS_5ScopeES1_.exit, label %.preheader, !llvm.loop !164

_ZN4Luau14subsumesStrictEPNS_5ScopeES1_.exit:     ; preds = %4, %.preheader, %2
  %7 = phi i1 [ true, %2 ], [ %.not.not.not.not.i.not.not.not, %.preheader ], [ %.not.not.not.not.i.not.not.not, %4 ]
  ret i1 %7
}